; ModuleID = '49/525.cpp'
source_filename = "49/525.cpp"
target datalayout = "e-m:e-p270:32:32-p271:32:32-p272:64:64-i64:64-f80:128-n8:16:32:64-S128"
target triple = "x86_64-pc-linux-gnu"

%"class.std::ios_base::Init" = type { i8 }
%"class.std::basic_istream" = type { i32 (...)**, i64, %"class.std::basic_ios" }
%"class.std::basic_ios" = type { %"class.std::ios_base", %"class.std::basic_ostream"*, i8, i8, %"class.std::basic_streambuf"*, %"class.std::ctype"*, %"class.std::num_put"*, %"class.std::num_get"* }
%"class.std::ios_base" = type { i32 (...)**, i64, i64, i32, i32, i32, %"struct.std::ios_base::_Callback_list"*, %"struct.std::ios_base::_Words", [8 x %"struct.std::ios_base::_Words"], i32, %"struct.std::ios_base::_Words"*, %"class.std::locale" }
%"struct.std::ios_base::_Callback_list" = type { %"struct.std::ios_base::_Callback_list"*, void (i32, %"class.std::ios_base"*, i32)*, i32, i32 }
%"struct.std::ios_base::_Words" = type { i8*, i64 }
%"class.std::locale" = type { %"class.std::locale::_Impl"* }
%"class.std::locale::_Impl" = type { i32, %"class.std::locale::facet"**, i64, %"class.std::locale::facet"**, i8** }
%"class.std::locale::facet" = type <{ i32 (...)**, i32, [4 x i8] }>
%"class.std::basic_ostream" = type { i32 (...)**, %"class.std::basic_ios" }
%"class.std::basic_streambuf" = type { i32 (...)**, i8*, i8*, i8*, i8*, i8*, i8*, %"class.std::locale" }
%"class.std::ctype" = type <{ %"class.std::locale::facet.base", [4 x i8], %struct.__locale_struct*, i8, [7 x i8], i32*, i32*, i16*, i8, [256 x i8], [256 x i8], i8, [6 x i8] }>
%"class.std::locale::facet.base" = type <{ i32 (...)**, i32 }>
%struct.__locale_struct = type { [13 x %struct.__locale_data*], i16*, i32*, i32*, [13 x i8*] }
%struct.__locale_data = type opaque
%"class.std::num_put" = type { %"class.std::locale::facet.base", [4 x i8] }
%"class.std::num_get" = type { %"class.std::locale::facet.base", [4 x i8] }

@_ZStL8__ioinit = internal global %"class.std::ios_base::Init" zeroinitializer, align 1
@__dso_handle = external hidden global i8
@_ZSt3cin = external dso_local global %"class.std::basic_istream", align 8
@_ZSt4cout = external dso_local global %"class.std::basic_ostream", align 8
@llvm.global_ctors = appending global [1 x { i32, void ()*, i8* }] [{ i32, void ()*, i8* } { i32 65535, void ()* @_GLOBAL__sub_I_525.cpp, i8* null }]

; Function Attrs: noinline uwtable
define internal void @__cxx_global_var_init() #0 section ".text.startup" {
  call void @_ZNSt8ios_base4InitC1Ev(%"class.std::ios_base::Init"* @_ZStL8__ioinit)
  %1 = call i32 @__cxa_atexit(void (i8*)* bitcast (void (%"class.std::ios_base::Init"*)* @_ZNSt8ios_base4InitD1Ev to void (i8*)*), i8* getelementptr inbounds (%"class.std::ios_base::Init", %"class.std::ios_base::Init"* @_ZStL8__ioinit, i32 0, i32 0), i8* @__dso_handle) #3
  ret void
}

declare dso_local void @_ZNSt8ios_base4InitC1Ev(%"class.std::ios_base::Init"*) unnamed_addr #1

; Function Attrs: nounwind
declare dso_local void @_ZNSt8ios_base4InitD1Ev(%"class.std::ios_base::Init"*) unnamed_addr #2

; Function Attrs: nounwind
declare dso_local i32 @__cxa_atexit(void (i8*)*, i8*, i8*) #3

; Function Attrs: noinline norecurse uwtable
define dso_local i32 @main() #4 {
  %1 = alloca i32, align 4
  %2 = alloca [501 x i8], align 16
  %3 = alloca i32, align 4
  %4 = alloca i32, align 4
  %5 = alloca i32, align 4
  %6 = alloca i32, align 4
  %7 = alloca i32, align 4
  %8 = alloca i32, align 4
  store i32 0, i32* %1, align 4
  %9 = getelementptr inbounds [501 x i8], [501 x i8]* %2, i64 0, i64 0
  %10 = call dereferenceable(280) %"class.std::basic_istream"* @_ZStrsIcSt11char_traitsIcEERSt13basic_istreamIT_T0_ES6_PS3_(%"class.std::basic_istream"* dereferenceable(280) @_ZSt3cin, i8* %9)
  %11 = getelementptr inbounds [501 x i8], [501 x i8]* %2, i64 0, i64 0
  %12 = call i64 @strlen(i8* %11) #6
  %13 = trunc i64 %12 to i32
  store i32 %13, i32* %6, align 4
  store i32 1, i32* %5, align 4
  br label %14

14:                                               ; preds = %102, %0
  %15 = load i32, i32* %5, align 4
  %16 = load i32, i32* %6, align 4
  %17 = sub nsw i32 %16, 1
  %18 = icmp sle i32 %15, %17
  br i1 %18, label %19, label %105

19:                                               ; preds = %14
  store i32 0, i32* %3, align 4
  br label %20

20:                                               ; preds = %98, %19
  %21 = load i32, i32* %3, align 4
  %22 = load i32, i32* %6, align 4
  %23 = sub nsw i32 %22, 1
  %24 = icmp slt i32 %21, %23
  br i1 %24, label %25, label %101

25:                                               ; preds = %20
  %26 = load i32, i32* %3, align 4
  %27 = load i32, i32* %5, align 4
  %28 = add nsw i32 %26, %27
  %29 = load i32, i32* %6, align 4
  %30 = icmp slt i32 %28, %29
  br i1 %30, label %31, label %97

31:                                               ; preds = %25
  %32 = load i32, i32* %3, align 4
  %33 = sext i32 %32 to i64
  %34 = getelementptr inbounds [501 x i8], [501 x i8]* %2, i64 0, i64 %33
  %35 = load i8, i8* %34, align 1
  %36 = sext i8 %35 to i32
  %37 = load i32, i32* %3, align 4
  %38 = load i32, i32* %5, align 4
  %39 = add nsw i32 %37, %38
  %40 = sext i32 %39 to i64
  %41 = getelementptr inbounds [501 x i8], [501 x i8]* %2, i64 0, i64 %40
  %42 = load i8, i8* %41, align 1
  %43 = sext i8 %42 to i32
  %44 = icmp eq i32 %36, %43
  br i1 %44, label %45, label %97

45:                                               ; preds = %31
  %46 = load i32, i32* %3, align 4
  store i32 %46, i32* %7, align 4
  %47 = load i32, i32* %3, align 4
  %48 = load i32, i32* %5, align 4
  %49 = add nsw i32 %47, %48
  store i32 %49, i32* %8, align 4
  br label %50

50:                                               ; preds = %68, %45
  %51 = load i32, i32* %7, align 4
  %52 = load i32, i32* %8, align 4
  %53 = icmp slt i32 %51, %52
  br i1 %53, label %54, label %73

54:                                               ; preds = %50
  %55 = load i32, i32* %7, align 4
  %56 = sext i32 %55 to i64
  %57 = getelementptr inbounds [501 x i8], [501 x i8]* %2, i64 0, i64 %56
  %58 = load i8, i8* %57, align 1
  %59 = sext i8 %58 to i32
  %60 = load i32, i32* %8, align 4
  %61 = sext i32 %60 to i64
  %62 = getelementptr inbounds [501 x i8], [501 x i8]* %2, i64 0, i64 %61
  %63 = load i8, i8* %62, align 1
  %64 = sext i8 %63 to i32
  %65 = icmp ne i32 %59, %64
  br i1 %65, label %66, label %67

66:                                               ; preds = %54
  br label %73

67:                                               ; preds = %54
  br label %68

68:                                               ; preds = %67
  %69 = load i32, i32* %7, align 4
  %70 = add nsw i32 %69, 1
  store i32 %70, i32* %7, align 4
  %71 = load i32, i32* %8, align 4
  %72 = add nsw i32 %71, -1
  store i32 %72, i32* %8, align 4
  br label %50

73:                                               ; preds = %66, %50
  %74 = load i32, i32* %7, align 4
  %75 = load i32, i32* %8, align 4
  %76 = icmp sge i32 %74, %75
  br i1 %76, label %77, label %96

77:                                               ; preds = %73
  %78 = load i32, i32* %3, align 4
  store i32 %78, i32* %4, align 4
  br label %79

79:                                               ; preds = %91, %77
  %80 = load i32, i32* %4, align 4
  %81 = load i32, i32* %3, align 4
  %82 = load i32, i32* %5, align 4
  %83 = add nsw i32 %81, %82
  %84 = icmp sle i32 %80, %83
  br i1 %84, label %85, label %94

85:                                               ; preds = %79
  %86 = load i32, i32* %4, align 4
  %87 = sext i32 %86 to i64
  %88 = getelementptr inbounds [501 x i8], [501 x i8]* %2, i64 0, i64 %87
  %89 = load i8, i8* %88, align 1
  %90 = call dereferenceable(272) %"class.std::basic_ostream"* @_ZStlsISt11char_traitsIcEERSt13basic_ostreamIcT_ES5_c(%"class.std::basic_ostream"* dereferenceable(272) @_ZSt4cout, i8 signext %89)
  br label %91

91:                                               ; preds = %85
  %92 = load i32, i32* %4, align 4
  %93 = add nsw i32 %92, 1
  store i32 %93, i32* %4, align 4
  br label %79

94:                                               ; preds = %79
  %95 = call dereferenceable(272) %"class.std::basic_ostream"* @_ZNSolsEPFRSoS_E(%"class.std::basic_ostream"* @_ZSt4cout, %"class.std::basic_ostream"* (%"class.std::basic_ostream"*)* @_ZSt4endlIcSt11char_traitsIcEERSt13basic_ostreamIT_T0_ES6_)
  br label %96

96:                                               ; preds = %94, %73
  br label %97

97:                                               ; preds = %96, %31, %25
  br label %98

98:                                               ; preds = %97
  %99 = load i32, i32* %3, align 4
  %100 = add nsw i32 %99, 1
  store i32 %100, i32* %3, align 4
  br label %20

101:                                              ; preds = %20
  br label %102

102:                                              ; preds = %101
  %103 = load i32, i32* %5, align 4
  %104 = add nsw i32 %103, 1
  store i32 %104, i32* %5, align 4
  br label %14

105:                                              ; preds = %14
  ret i32 0
}

declare dso_local dereferenceable(280) %"class.std::basic_istream"* @_ZStrsIcSt11char_traitsIcEERSt13basic_istreamIT_T0_ES6_PS3_(%"class.std::basic_istream"* dereferenceable(280), i8*) #1

; Function Attrs: nounwind readonly
declare dso_local i64 @strlen(i8*) #5

declare dso_local dereferenceable(272) %"class.std::basic_ostream"* @_ZStlsISt11char_traitsIcEERSt13basic_ostreamIcT_ES5_c(%"class.std::basic_ostream"* dereferenceable(272), i8 signext) #1

declare dso_local dereferenceable(272) %"class.std::basic_ostream"* @_ZNSolsEPFRSoS_E(%"class.std::basic_ostream"*, %"class.std::basic_ostream"* (%"class.std::basic_ostream"*)*) #1

declare dso_local dereferenceable(272) %"class.std::basic_ostream"* @_ZSt4endlIcSt11char_traitsIcEERSt13basic_ostreamIT_T0_ES6_(%"class.std::basic_ostream"* dereferenceable(272)) #1

; Function Attrs: noinline uwtable
define internal void @_GLOBAL__sub_I_525.cpp() #0 section ".text.startup" {
  call void @__cxx_global_var_init()
  ret void
}


!llvm.module.flags = !{!0}
!llvm.ident = !{!1}

!0 = !{i32 1, !"wchar_size", i32 4}
!1 = !{!"clang version 10.0.0-4ubuntu1 "}
